
image:     file format elf32-lm32

Sections:
Idx Name          Size      VMA       LMA       File off  Algn
  0 .text         00000738  00000000  00000000  00000054  2**2
                  CONTENTS, ALLOC, LOAD, CODE
  1 .rodata       00000004  00000738  00000738  0000078c  2**2
                  CONTENTS, ALLOC, LOAD, READONLY, DATA
  2 .data         000009ec  0000073c  0000073c  00000790  2**2
                  CONTENTS, ALLOC, LOAD, DATA
  3 .bss          0000008c  00001128  00001128  0000117c  2**2
                  ALLOC
  4 .debug_abbrev 000003d1  00000000  00000000  0000117c  2**0
                  CONTENTS, READONLY, DEBUGGING
  5 .debug_info   0000086b  00000000  00000000  0000154d  2**0
                  CONTENTS, READONLY, DEBUGGING
  6 .debug_line   00000704  00000000  00000000  00001db8  2**0
                  CONTENTS, READONLY, DEBUGGING
  7 .debug_frame  00000170  00000000  00000000  000024bc  2**2
                  CONTENTS, READONLY, DEBUGGING
  8 .debug_loc    000001db  00000000  00000000  0000262c  2**0
                  CONTENTS, READONLY, DEBUGGING
  9 .debug_pubnames 000001b2  00000000  00000000  00002807  2**0
                  CONTENTS, READONLY, DEBUGGING
 10 .debug_pubtypes 0000008f  00000000  00000000  000029b9  2**0
                  CONTENTS, READONLY, DEBUGGING
 11 .debug_aranges 00000040  00000000  00000000  00002a48  2**0
                  CONTENTS, READONLY, DEBUGGING
 12 .debug_str    0000025b  00000000  00000000  00002a88  2**0
                  CONTENTS, READONLY, DEBUGGING
 13 .comment      00000011  00000000  00000000  00002ce3  2**0
                  CONTENTS, READONLY
 14 .debug_ranges 000000b8  00000000  00000000  00002cf4  2**0
                  CONTENTS, READONLY, DEBUGGING

Disassembly of section .text:

00000000 <_ftext>:
   0:	98 00 00 00 	xor r0,r0,r0
   4:	d0 00 00 00 	wcsr IE,r0
   8:	78 01 00 00 	mvhi r1,0x0
   c:	38 21 00 00 	ori r1,r1,0x0
  10:	d0 e1 00 00 	wcsr EBA,r1
  14:	f8 00 00 3b 	calli 100 <_crt0>
  18:	34 00 00 00 	nop
  1c:	34 00 00 00 	nop

00000020 <_breakpoint_handler>:
  20:	34 00 00 00 	nop
  24:	34 00 00 00 	nop
  28:	34 00 00 00 	nop
  2c:	34 00 00 00 	nop
  30:	34 00 00 00 	nop
  34:	34 00 00 00 	nop
  38:	34 00 00 00 	nop
  3c:	34 00 00 00 	nop

00000040 <_ibuserror_handler>:
  40:	34 00 00 00 	nop
  44:	34 00 00 00 	nop
  48:	34 00 00 00 	nop
  4c:	34 00 00 00 	nop
  50:	34 00 00 00 	nop
  54:	34 00 00 00 	nop
  58:	34 00 00 00 	nop
  5c:	34 00 00 00 	nop

00000060 <_watchpoint_handler>:
  60:	34 00 00 00 	nop
  64:	34 00 00 00 	nop
  68:	34 00 00 00 	nop
  6c:	34 00 00 00 	nop
  70:	34 00 00 00 	nop
  74:	34 00 00 00 	nop
  78:	34 00 00 00 	nop
  7c:	34 00 00 00 	nop

00000080 <_dbuserror_handler>:
  80:	34 00 00 00 	nop
  84:	34 00 00 00 	nop
  88:	34 00 00 00 	nop
  8c:	34 00 00 00 	nop
  90:	34 00 00 00 	nop
  94:	34 00 00 00 	nop
  98:	34 00 00 00 	nop
  9c:	34 00 00 00 	nop

000000a0 <_divzero_handler>:
  a0:	34 00 00 00 	nop
  a4:	34 00 00 00 	nop
  a8:	34 00 00 00 	nop
  ac:	34 00 00 00 	nop
  b0:	34 00 00 00 	nop
  b4:	34 00 00 00 	nop
  b8:	34 00 00 00 	nop
  bc:	34 00 00 00 	nop

000000c0 <_interrupt_handler>:
  c0:	5b 9d 00 00 	sw (sp+0),ra
  c4:	f8 00 00 2b 	calli 170 <_save_all>
  c8:	90 40 08 00 	rcsr r1,IP
  cc:	f8 00 00 e7 	calli 468 <irq_handler>
  d0:	78 01 ff ff 	mvhi r1,0xffff
  d4:	38 21 ff ff 	ori r1,r1,0xffff
  d8:	d0 41 00 00 	wcsr IP,r1
  dc:	e0 00 00 38 	bi 1bc <_restore_all_and_eret>

000000e0 <_scall_handler>:
  e0:	34 00 00 00 	nop
  e4:	34 00 00 00 	nop
  e8:	34 00 00 00 	nop
  ec:	34 00 00 00 	nop
  f0:	34 00 00 00 	nop
  f4:	34 00 00 00 	nop
  f8:	34 00 00 00 	nop
  fc:	34 00 00 00 	nop

00000100 <_crt0>:
 100:	78 1c 0f ff 	mvhi sp,0xfff
 104:	3b 9c ff fc 	ori sp,sp,0xfffc
 108:	78 1a 00 00 	mvhi gp,0x0
 10c:	3b 5a 11 30 	ori gp,gp,0x1130
 110:	78 01 00 00 	mvhi r1,0x0
 114:	38 21 11 28 	ori r1,r1,0x1128
 118:	78 03 00 00 	mvhi r3,0x0
 11c:	38 63 11 b4 	ori r3,r3,0x11b4

00000120 <.clearBSS>:
 120:	44 23 00 04 	be r1,r3,130 <.callMain>
 124:	58 20 00 00 	sw (r1+0),r0
 128:	34 21 00 04 	addi r1,r1,4
 12c:	e3 ff ff fd 	bi 120 <.clearBSS>

00000130 <.callMain>:
 130:	34 01 00 00 	mvi r1,0
 134:	34 02 00 00 	mvi r2,0
 138:	34 03 00 00 	mvi r3,0
 13c:	f8 00 00 33 	calli 208 <main>

00000140 <irq_enable>:
 140:	34 01 00 01 	mvi r1,1
 144:	d0 01 00 00 	wcsr IE,r1
 148:	c3 a0 00 00 	ret

0000014c <irq_disable>:
 14c:	34 01 00 00 	mvi r1,0
 150:	d0 01 00 00 	wcsr IE,r1
 154:	c3 a0 00 00 	ret

00000158 <irq_set_mask>:
 158:	d0 21 00 00 	wcsr IM,r1
 15c:	c3 a0 00 00 	ret

00000160 <irq_get_mask>:
 160:	90 20 08 00 	rcsr r1,IM
 164:	c3 a0 00 00 	ret

00000168 <jump>:
 168:	c0 20 00 00 	b r1

0000016c <halt>:
 16c:	e0 00 00 00 	bi 16c <halt>

00000170 <_save_all>:
 170:	37 9c ff 80 	addi sp,sp,-128
 174:	5b 81 00 04 	sw (sp+4),r1
 178:	5b 82 00 08 	sw (sp+8),r2
 17c:	5b 83 00 0c 	sw (sp+12),r3
 180:	5b 84 00 10 	sw (sp+16),r4
 184:	5b 85 00 14 	sw (sp+20),r5
 188:	5b 86 00 18 	sw (sp+24),r6
 18c:	5b 87 00 1c 	sw (sp+28),r7
 190:	5b 88 00 20 	sw (sp+32),r8
 194:	5b 89 00 24 	sw (sp+36),r9
 198:	5b 8a 00 28 	sw (sp+40),r10
 19c:	5b 9e 00 78 	sw (sp+120),ea
 1a0:	5b 9f 00 7c 	sw (sp+124),ba
 1a4:	2b 81 00 80 	lw r1,(sp+128)
 1a8:	5b 81 00 74 	sw (sp+116),r1
 1ac:	bb 80 08 00 	mv r1,sp
 1b0:	34 21 00 80 	addi r1,r1,128
 1b4:	5b 81 00 70 	sw (sp+112),r1
 1b8:	c3 a0 00 00 	ret

000001bc <_restore_all_and_eret>:
 1bc:	2b 81 00 04 	lw r1,(sp+4)
 1c0:	2b 82 00 08 	lw r2,(sp+8)
 1c4:	2b 83 00 0c 	lw r3,(sp+12)
 1c8:	2b 84 00 10 	lw r4,(sp+16)
 1cc:	2b 85 00 14 	lw r5,(sp+20)
 1d0:	2b 86 00 18 	lw r6,(sp+24)
 1d4:	2b 87 00 1c 	lw r7,(sp+28)
 1d8:	2b 88 00 20 	lw r8,(sp+32)
 1dc:	2b 89 00 24 	lw r9,(sp+36)
 1e0:	2b 8a 00 28 	lw r10,(sp+40)
 1e4:	2b 9d 00 74 	lw ra,(sp+116)
 1e8:	2b 9e 00 78 	lw ea,(sp+120)
 1ec:	2b 9f 00 7c 	lw ba,(sp+124)
 1f0:	2b 9c 00 70 	lw sp,(sp+112)
 1f4:	c3 c0 00 00 	eret

000001f8 <get_sp>:
 1f8:	bb 80 08 00 	mv r1,sp
 1fc:	c3 a0 00 00 	ret

00000200 <get_gp>:
 200:	bb 40 08 00 	mv r1,gp
 204:	c3 a0 00 00 	ret

00000208 <main>:
44,
34,
24,
16};
int main()
{
 208:	37 9c ff d0 	addi sp,sp,-48
 20c:	5b 8b 00 30 	sw (sp+48),r11
 210:	5b 8c 00 2c 	sw (sp+44),r12
 214:	5b 8d 00 28 	sw (sp+40),r13
 218:	5b 8e 00 24 	sw (sp+36),r14
 21c:	5b 8f 00 20 	sw (sp+32),r15
 220:	5b 90 00 1c 	sw (sp+28),r16
 224:	5b 91 00 18 	sw (sp+24),r17
 228:	5b 92 00 14 	sw (sp+20),r18
 22c:	5b 93 00 10 	sw (sp+16),r19
 230:	5b 94 00 0c 	sw (sp+12),r20
 234:	5b 95 00 08 	sw (sp+8),r21
 238:	5b 9d 00 04 	sw (sp+4),ra
	uint8_t  c;
	gpio0->oe = 0xFF;
 23c:	78 0b 00 00 	mvhi r11,0x0
 240:	39 6b 0f 14 	ori r11,r11,0xf14
 244:	29 62 00 00 	lw r2,(r11+0)
 248:	34 01 00 ff 	mvi r1,255
 24c:	78 13 00 00 	mvhi r19,0x0
 250:	58 41 00 18 	sw (r2+24),r1
nsleep(20000);
}*/

	for(;;) {	

			c = gpio0->in;
 254:	28 41 00 10 	lw r1,(r2+16)
 258:	78 11 00 00 	mvhi r17,0x0
			
	switch (c) {
 25c:	34 12 00 02 	mvi r18,2
 260:	20 21 00 ff 	andi r1,r1,0xff
 264:	3a 73 07 3c 	ori r19,r19,0x73c
		  
	}

    			break;
		case 0x02:
			gpio0->out = 0x01;
 268:	34 0e 00 01 	mvi r14,1

	for(;;) {	

			c = gpio0->in;
			
	switch (c) {
 26c:	34 15 00 04 	mvi r21,4
 270:	34 14 00 08 	mvi r20,8
52,
44,
34,
24,
16};
int main()
 274:	3a 31 0a 5c 	ori r17,r17,0xa5c
					  result = sen [N];
				  for(unos=0; unos<result; unos++){
						gpio0->out = 0x01;
						msleep (1);
					}
				for(ceros=result; ceros<100; ceros++){
 278:	34 0f 00 63 	mvi r15,99

	for(;;) {	

			c = gpio0->in;
			
	switch (c) {
 27c:	44 32 00 09 	be r1,r18,2a0 <main+0x98>
 280:	54 32 00 25 	bgu r1,r18,314 <main+0x10c>
 284:	44 2e 00 0f 	be r1,r14,2c0 <main+0xb8>
			nsleep(20000);
			gpio0->out = 0x00;
			nsleep(20000);
    			break;
    		
		default: gpio0->out = 0x00;
 288:	58 40 00 14 	sw (r2+20),r0
			}
		
		gpio0->out=0x00;		
 28c:	29 62 00 00 	lw r2,(r11+0)
 290:	58 40 00 14 	sw (r2+20),r0
nsleep(20000);
}*/

	for(;;) {	

			c = gpio0->in;
 294:	28 41 00 10 	lw r1,(r2+16)
			
	switch (c) {
 298:	20 21 00 ff 	andi r1,r1,0xff
 29c:	5c 32 ff f9 	bne r1,r18,280 <main+0x78>
		  
	}

    			break;
		case 0x02:
			gpio0->out = 0x01;
 2a0:	58 4e 00 14 	sw (r2+20),r14
			msleep(1);
 2a4:	34 01 00 01 	mvi r1,1
 2a8:	f8 00 00 a0 	calli 528 <msleep>
			gpio0->out = 0x00;
 2ac:	29 62 00 00 	lw r2,(r11+0)
			msleep(1);
 2b0:	34 01 00 01 	mvi r1,1

    			break;
		case 0x02:
			gpio0->out = 0x01;
			msleep(1);
			gpio0->out = 0x00;
 2b4:	58 40 00 14 	sw (r2+20),r0
			msleep(1);
 2b8:	f8 00 00 9c 	calli 528 <msleep>
    			break;
 2bc:	e3 ff ff f4 	bi 28c <main+0x84>

	for(;;) {	

			c = gpio0->in;
			
	switch (c) {
 2c0:	ba 60 80 00 	mv r16,r19
    		case 0x01:
			
			for (N=0; N<200; N++){	
					  result = sen [N];
 2c4:	2a 0c 00 00 	lw r12,(r16+0)
				  for(unos=0; unos<result; unos++){
 2c8:	4c 0c 00 0c 	bge r0,r12,2f8 <main+0xf0>
 2cc:	34 0d 00 00 	mvi r13,0
						gpio0->out = 0x01;
 2d0:	29 62 00 00 	lw r2,(r11+0)
	switch (c) {
    		case 0x01:
			
			for (N=0; N<200; N++){	
					  result = sen [N];
				  for(unos=0; unos<result; unos++){
 2d4:	35 ad 00 01 	addi r13,r13,1
						gpio0->out = 0x01;
						msleep (1);
 2d8:	34 01 00 01 	mvi r1,1
    		case 0x01:
			
			for (N=0; N<200; N++){	
					  result = sen [N];
				  for(unos=0; unos<result; unos++){
						gpio0->out = 0x01;
 2dc:	58 4e 00 14 	sw (r2+20),r14
						msleep (1);
 2e0:	f8 00 00 92 	calli 528 <msleep>
	switch (c) {
    		case 0x01:
			
			for (N=0; N<200; N++){	
					  result = sen [N];
				  for(unos=0; unos<result; unos++){
 2e4:	49 8d ff fb 	bg r12,r13,2d0 <main+0xc8>
						gpio0->out = 0x01;
						msleep (1);
					}
				for(ceros=result; ceros<100; ceros++){
 2e8:	4d ec 00 04 	bge r15,r12,2f8 <main+0xf0>
 2ec:	36 10 00 04 	addi r16,r16,4
			c = gpio0->in;
			
	switch (c) {
    		case 0x01:
			
			for (N=0; N<200; N++){	
 2f0:	5e 11 ff f5 	bne r16,r17,2c4 <main+0xbc>
 2f4:	e3 ff ff e6 	bi 28c <main+0x84>
				  for(unos=0; unos<result; unos++){
						gpio0->out = 0x01;
						msleep (1);
					}
				for(ceros=result; ceros<100; ceros++){
					gpio0->out = 0x00;
 2f8:	29 62 00 00 	lw r2,(r11+0)
					  result = sen [N];
				  for(unos=0; unos<result; unos++){
						gpio0->out = 0x01;
						msleep (1);
					}
				for(ceros=result; ceros<100; ceros++){
 2fc:	35 8c 00 01 	addi r12,r12,1
					gpio0->out = 0x00;
					msleep (1);
 300:	34 01 00 01 	mvi r1,1
				  for(unos=0; unos<result; unos++){
						gpio0->out = 0x01;
						msleep (1);
					}
				for(ceros=result; ceros<100; ceros++){
					gpio0->out = 0x00;
 304:	58 40 00 14 	sw (r2+20),r0
					msleep (1);
 308:	f8 00 00 88 	calli 528 <msleep>
					  result = sen [N];
				  for(unos=0; unos<result; unos++){
						gpio0->out = 0x01;
						msleep (1);
					}
				for(ceros=result; ceros<100; ceros++){
 30c:	4d ec ff fb 	bge r15,r12,2f8 <main+0xf0>
 310:	e3 ff ff f7 	bi 2ec <main+0xe4>

	for(;;) {	

			c = gpio0->in;
			
	switch (c) {
 314:	44 35 00 0b 	be r1,r21,340 <main+0x138>
 318:	5c 34 ff dc 	bne r1,r20,288 <main+0x80>
			gpio0->out = 0x00;
			msleep(2);
    			break;
		
		case 0x08:
			gpio0->in;
 31c:	28 41 00 10 	lw r1,(r2+16)
			gpio0->out = 0x01;
 320:	58 4e 00 14 	sw (r2+20),r14
			nsleep(20000);
 324:	34 01 4e 20 	mvi r1,20000
 328:	f8 00 00 8f 	calli 564 <nsleep>
			gpio0->out = 0x00;
 32c:	29 62 00 00 	lw r2,(r11+0)
			nsleep(20000);
 330:	34 01 4e 20 	mvi r1,20000
		
		case 0x08:
			gpio0->in;
			gpio0->out = 0x01;
			nsleep(20000);
			gpio0->out = 0x00;
 334:	58 40 00 14 	sw (r2+20),r0
			nsleep(20000);
 338:	f8 00 00 8b 	calli 564 <nsleep>
    			break;
 33c:	e3 ff ff d4 	bi 28c <main+0x84>
			msleep(1);
			gpio0->out = 0x00;
			msleep(1);
    			break;
		case 0x04:
			gpio0->in;
 340:	28 41 00 10 	lw r1,(r2+16)
			gpio0->out = 0x01;
 344:	58 4e 00 14 	sw (r2+20),r14
			msleep(2);
 348:	34 01 00 02 	mvi r1,2
 34c:	f8 00 00 77 	calli 528 <msleep>
			gpio0->out = 0x00;
 350:	29 62 00 00 	lw r2,(r11+0)
			msleep(2);
 354:	34 01 00 02 	mvi r1,2
    			break;
		case 0x04:
			gpio0->in;
			gpio0->out = 0x01;
			msleep(2);
			gpio0->out = 0x00;
 358:	58 40 00 14 	sw (r2+20),r0
			msleep(2);
 35c:	f8 00 00 73 	calli 528 <msleep>
    			break;
 360:	e3 ff ff cb 	bi 28c <main+0x84>

00000364 <isr_null>:
/***************************************************************************
 * IRQ handling
 */
void isr_null()
{
}
 364:	c3 a0 00 00 	ret

00000368 <tic_isr_0>:
{
	uint32_t out_state = 0;
	
	//uart_putstr("Interruption Timer 0\n");
	
	out_state = gpio0->out;
 368:	78 03 00 00 	mvhi r3,0x0
 36c:	38 63 0f 14 	ori r3,r3,0xf14
	gpio0->out = out_state | 0x01;
	
	timer0->counter0 = 0;
	timer0->tcr0   = TIMER_EN | TIMER_AR | TIMER_IRQEN;
	
	timer0->compare1 = conf_util(pwm_d[0]);
 370:	78 02 00 00 	mvhi r2,0x0
uint32_t conf_per() {
			return (FCPU/1000)*pwm_p;
		}

uint32_t conf_util(uint32_t percentage){
			return (FCPU/44100/100)*pwm_p*percentage;  
 374:	78 01 00 00 	mvhi r1,0x0
{
	uint32_t out_state = 0;
	
	//uart_putstr("Interruption Timer 0\n");
	
	out_state = gpio0->out;
 378:	28 63 00 00 	lw r3,(r3+0)
	gpio0->out = out_state | 0x01;
	
	timer0->counter0 = 0;
	timer0->tcr0   = TIMER_EN | TIMER_AR | TIMER_IRQEN;
	
	timer0->compare1 = conf_util(pwm_d[0]);
 37c:	38 42 0f 1c 	ori r2,r2,0xf1c
uint32_t conf_per() {
			return (FCPU/1000)*pwm_p;
		}

uint32_t conf_util(uint32_t percentage){
			return (FCPU/44100/100)*pwm_p*percentage;  
 380:	38 21 11 28 	ori r1,r1,0x1128
 384:	28 45 00 00 	lw r5,(r2+0)
 388:	28 22 00 00 	lw r2,(r1+0)
{
	uint32_t out_state = 0;
	
	//uart_putstr("Interruption Timer 0\n");
	
	out_state = gpio0->out;
 38c:	28 64 00 14 	lw r4,(r3+20)
	gpio0->out = out_state | 0x01;
	
	timer0->counter0 = 0;
 390:	78 01 00 00 	mvhi r1,0x0
uint32_t conf_per() {
			return (FCPU/1000)*pwm_p;
		}

uint32_t conf_util(uint32_t percentage){
			return (FCPU/44100/100)*pwm_p*percentage;  
 394:	88 a2 10 00 	mul r2,r5,r2
	//uart_putstr("Interruption Timer 0\n");
	
	out_state = gpio0->out;
	gpio0->out = out_state | 0x01;
	
	timer0->counter0 = 0;
 398:	38 21 0f 10 	ori r1,r1,0xf10
 39c:	28 21 00 00 	lw r1,(r1+0)
	uint32_t out_state = 0;
	
	//uart_putstr("Interruption Timer 0\n");
	
	out_state = gpio0->out;
	gpio0->out = out_state | 0x01;
 3a0:	38 84 00 01 	ori r4,r4,0x1
 3a4:	58 64 00 14 	sw (r3+20),r4
uint32_t conf_per() {
			return (FCPU/1000)*pwm_p;
		}

uint32_t conf_util(uint32_t percentage){
			return (FCPU/44100/100)*pwm_p*percentage;  
 3a8:	08 43 00 16 	muli r3,r2,22
	//uart_putstr("Interruption Timer 0\n");
	
	out_state = gpio0->out;
	gpio0->out = out_state | 0x01;
	
	timer0->counter0 = 0;
 3ac:	58 20 00 08 	sw (r1+8),r0
	timer0->tcr0   = TIMER_EN | TIMER_AR | TIMER_IRQEN;
 3b0:	34 02 00 0e 	mvi r2,14
 3b4:	58 22 00 00 	sw (r1+0),r2
	
	timer0->compare1 = conf_util(pwm_d[0]);
 3b8:	58 23 00 10 	sw (r1+16),r3
	timer0->counter1 = 0;
 3bc:	58 20 00 14 	sw (r1+20),r0
	timer0->tcr1   = TIMER_EN | TIMER_AR | TIMER_IRQEN;
 3c0:	58 22 00 0c 	sw (r1+12),r2
}
 3c4:	c3 a0 00 00 	ret

000003c8 <tic_isr_1>:
{
	uint32_t out_state = 0;
	
	//uart_putstr("Interruption Timer 1\n");
	
	out_state = gpio0->out;
 3c8:	78 01 00 00 	mvhi r1,0x0
 3cc:	38 21 0f 14 	ori r1,r1,0xf14
 3d0:	28 22 00 00 	lw r2,(r1+0)
	gpio0->out = out_state & 0xFE;
	
	timer0->tcr1     = 0x00;
 3d4:	78 01 00 00 	mvhi r1,0x0
 3d8:	38 21 0f 10 	ori r1,r1,0xf10
{
	uint32_t out_state = 0;
	
	//uart_putstr("Interruption Timer 1\n");
	
	out_state = gpio0->out;
 3dc:	28 43 00 14 	lw r3,(r2+20)
	gpio0->out = out_state & 0xFE;
	
	timer0->tcr1     = 0x00;
 3e0:	28 21 00 00 	lw r1,(r1+0)
	uint32_t out_state = 0;
	
	//uart_putstr("Interruption Timer 1\n");
	
	out_state = gpio0->out;
	gpio0->out = out_state & 0xFE;
 3e4:	20 63 00 fe 	andi r3,r3,0xfe
 3e8:	58 43 00 14 	sw (r2+20),r3
	
	timer0->tcr1     = 0x00;
 3ec:	58 20 00 0c 	sw (r1+12),r0
}
 3f0:	c3 a0 00 00 	ret

000003f4 <prueba>:

isr_ptr_t isr_table[32];

void prueba()
{
	   uart0->rxtx=30;
 3f4:	78 02 00 00 	mvhi r2,0x0
 3f8:	38 42 0f 0c 	ori r2,r2,0xf0c
	   timer0->tcr0 = 0xAA;
 3fc:	78 01 00 00 	mvhi r1,0x0

isr_ptr_t isr_table[32];

void prueba()
{
	   uart0->rxtx=30;
 400:	28 44 00 00 	lw r4,(r2+0)
	   timer0->tcr0 = 0xAA;
 404:	38 21 0f 10 	ori r1,r1,0xf10
	   gpio0->ctrl=0x55;
 408:	78 02 00 00 	mvhi r2,0x0
isr_ptr_t isr_table[32];

void prueba()
{
	   uart0->rxtx=30;
	   timer0->tcr0 = 0xAA;
 40c:	28 23 00 00 	lw r3,(r1+0)
	   gpio0->ctrl=0x55;
 410:	38 42 0f 14 	ori r2,r2,0xf14
	   spi0->rxtx=1;
 414:	78 01 00 00 	mvhi r1,0x0

void prueba()
{
	   uart0->rxtx=30;
	   timer0->tcr0 = 0xAA;
	   gpio0->ctrl=0x55;
 418:	28 42 00 00 	lw r2,(r2+0)
	   spi0->rxtx=1;
 41c:	38 21 0f 18 	ori r1,r1,0xf18

isr_ptr_t isr_table[32];

void prueba()
{
	   uart0->rxtx=30;
 420:	34 05 00 1e 	mvi r5,30
 424:	58 85 00 04 	sw (r4+4),r5
	   timer0->tcr0 = 0xAA;
	   gpio0->ctrl=0x55;
	   spi0->rxtx=1;
 428:	28 21 00 00 	lw r1,(r1+0)
isr_ptr_t isr_table[32];

void prueba()
{
	   uart0->rxtx=30;
	   timer0->tcr0 = 0xAA;
 42c:	34 04 00 aa 	mvi r4,170
 430:	58 64 00 00 	sw (r3+0),r4
	   gpio0->ctrl=0x55;
 434:	34 03 00 55 	mvi r3,85
 438:	58 43 00 00 	sw (r2+0),r3
	   spi0->rxtx=1;
 43c:	34 02 00 01 	mvi r2,1
 440:	58 22 00 00 	sw (r1+0),r2
	   spi0->nop1=2;
 444:	34 02 00 02 	mvi r2,2
 448:	58 22 00 04 	sw (r1+4),r2
	   spi0->cs=3;
 44c:	34 02 00 03 	mvi r2,3
 450:	58 22 00 08 	sw (r1+8),r2
	   spi0->divisor=4;
 454:	34 02 00 04 	mvi r2,4
 458:	58 22 00 10 	sw (r1+16),r2
	   spi0->nop2=5;
 45c:	34 02 00 05 	mvi r2,5
 460:	58 22 00 0c 	sw (r1+12),r2

}
 464:	c3 a0 00 00 	ret

00000468 <irq_handler>:
void isr_null()
{
}

void irq_handler(uint32_t pending)
{
 468:	37 9c ff f0 	addi sp,sp,-16
 46c:	5b 8b 00 10 	sw (sp+16),r11
 470:	5b 8c 00 0c 	sw (sp+12),r12
 474:	5b 8d 00 08 	sw (sp+8),r13
 478:	5b 9d 00 04 	sw (sp+4),ra
 47c:	78 0b 00 00 	mvhi r11,0x0
 480:	39 6b 11 30 	ori r11,r11,0x1130
 484:	b8 20 60 00 	mv r12,r1
 */
void isr_null()
{
}

void irq_handler(uint32_t pending)
 488:	35 6d 00 80 	addi r13,r11,128
 48c:	e0 00 00 04 	bi 49c <irq_handler+0x34>
{
	int i;

	for(i=0; i<32; i++) {
		if (pending & 0x01) (*isr_table[i])();
 490:	35 6b 00 04 	addi r11,r11,4

void irq_handler(uint32_t pending)
{
	int i;

	for(i=0; i<32; i++) {
 494:	45 6d 00 08 	be r11,r13,4b4 <irq_handler+0x4c>
		if (pending & 0x01) (*isr_table[i])();
		pending >>= 1;
 498:	01 8c 00 01 	srui r12,r12,1
void irq_handler(uint32_t pending)
{
	int i;

	for(i=0; i<32; i++) {
		if (pending & 0x01) (*isr_table[i])();
 49c:	21 81 00 01 	andi r1,r12,0x1
 4a0:	44 20 ff fc 	be r1,r0,490 <irq_handler+0x28>
 4a4:	29 61 00 00 	lw r1,(r11+0)
 4a8:	35 6b 00 04 	addi r11,r11,4
 4ac:	d8 20 00 00 	call r1

void irq_handler(uint32_t pending)
{
	int i;

	for(i=0; i<32; i++) {
 4b0:	5d 6d ff fa 	bne r11,r13,498 <irq_handler+0x30>
		if (pending & 0x01) (*isr_table[i])();
		pending >>= 1;
	}
}
 4b4:	2b 9d 00 04 	lw ra,(sp+4)
 4b8:	2b 8b 00 10 	lw r11,(sp+16)
 4bc:	2b 8c 00 0c 	lw r12,(sp+12)
 4c0:	2b 8d 00 08 	lw r13,(sp+8)
 4c4:	37 9c 00 10 	addi sp,sp,16
 4c8:	c3 a0 00 00 	ret

000004cc <isr_init>:

void isr_init()
{
 4cc:	78 01 00 00 	mvhi r1,0x0
 4d0:	78 02 00 00 	mvhi r2,0x0
 4d4:	38 21 11 30 	ori r1,r1,0x1130
 4d8:	38 42 03 64 	ori r2,r2,0x364
		if (pending & 0x01) (*isr_table[i])();
		pending >>= 1;
	}
}

void isr_init()
 4dc:	34 23 00 80 	addi r3,r1,128
{
	int i;
	for(i=0; i<32; i++)
		isr_table[i] = &isr_null;
 4e0:	58 22 00 00 	sw (r1+0),r2
 4e4:	34 21 00 04 	addi r1,r1,4
}

void isr_init()
{
	int i;
	for(i=0; i<32; i++)
 4e8:	5c 23 ff fe 	bne r1,r3,4e0 <isr_init+0x14>
		isr_table[i] = &isr_null;
}
 4ec:	c3 a0 00 00 	ret

000004f0 <isr_register>:

void isr_register(int irq, isr_ptr_t isr)
{
	isr_table[irq] = isr;
 4f0:	78 03 00 00 	mvhi r3,0x0
 4f4:	3c 21 00 02 	sli r1,r1,2
 4f8:	38 63 11 30 	ori r3,r3,0x1130
 4fc:	b4 61 18 00 	add r3,r3,r1
 500:	58 62 00 00 	sw (r3+0),r2
}
 504:	c3 a0 00 00 	ret

00000508 <isr_unregister>:

void isr_unregister(int irq)
{
	isr_table[irq] = &isr_null;
 508:	78 03 00 00 	mvhi r3,0x0
 50c:	3c 21 00 02 	sli r1,r1,2
 510:	38 63 11 30 	ori r3,r3,0x1130
 514:	78 02 00 00 	mvhi r2,0x0
 518:	b4 61 18 00 	add r3,r3,r1
 51c:	38 42 03 64 	ori r2,r2,0x364
 520:	58 62 00 00 	sw (r3+0),r2
}
 524:	c3 a0 00 00 	ret

00000528 <msleep>:
void msleep(uint32_t msec)
{
	uint32_t tcr;

	// Use timer0.1
	timer0->compare1 = (FCPU/1000)*msec;
 528:	78 04 00 00 	mvhi r4,0x0
 52c:	38 84 07 38 	ori r4,r4,0x738
 530:	28 83 00 00 	lw r3,(r4+0)
 534:	78 02 00 00 	mvhi r2,0x0
 538:	38 42 0f 10 	ori r2,r2,0xf10
 53c:	28 42 00 00 	lw r2,(r2+0)
 540:	88 23 08 00 	mul r1,r1,r3
 544:	58 41 00 10 	sw (r2+16),r1
	timer0->counter1 = 0;
 548:	58 40 00 14 	sw (r2+20),r0
	timer0->tcr1 = TIMER_EN;
 54c:	34 01 00 08 	mvi r1,8
 550:	58 41 00 0c 	sw (r2+12),r1

	do {
		//halt();
 		tcr = timer0->tcr1;
 554:	28 41 00 0c 	lw r1,(r2+12)
 	} while ( ! (tcr & TIMER_TRIG) );
 558:	20 21 00 01 	andi r1,r1,0x1
 55c:	44 20 ff fe 	be r1,r0,554 <msleep+0x2c>
}
 560:	c3 a0 00 00 	ret

00000564 <nsleep>:
void nsleep(uint32_t nsec)
{
	uint32_t tcr;

	// Use timer0.1
	timer0->compare1 = (FCPU/1000000)*nsec;
 564:	78 02 00 00 	mvhi r2,0x0
 568:	38 42 0f 10 	ori r2,r2,0xf10
 56c:	28 42 00 00 	lw r2,(r2+0)
 570:	08 21 00 64 	muli r1,r1,100
 574:	58 41 00 10 	sw (r2+16),r1
	timer0->counter1 = 0;
 578:	58 40 00 14 	sw (r2+20),r0
	timer0->tcr1 = TIMER_EN;
 57c:	34 01 00 08 	mvi r1,8
 580:	58 41 00 0c 	sw (r2+12),r1

	do {
		//halt();
 		tcr = timer0->tcr1;
 584:	28 41 00 0c 	lw r1,(r2+12)
 	} while ( ! (tcr & TIMER_TRIG) );
 588:	20 21 00 01 	andi r1,r1,0x1
 58c:	44 20 ff fe 	be r1,r0,584 <nsleep+0x20>
}
 590:	c3 a0 00 00 	ret

00000594 <tic_isr>:

uint32_t tic_msec;

void tic_isr()
{
	tic_msec++;
 594:	78 01 00 00 	mvhi r1,0x0
 598:	38 21 11 b0 	ori r1,r1,0x11b0
 59c:	28 23 00 00 	lw r3,(r1+0)
	timer0->tcr0     = TIMER_EN | TIMER_AR | TIMER_IRQEN;
 5a0:	78 02 00 00 	mvhi r2,0x0
 5a4:	38 42 0f 10 	ori r2,r2,0xf10
 5a8:	28 42 00 00 	lw r2,(r2+0)

uint32_t tic_msec;

void tic_isr()
{
	tic_msec++;
 5ac:	34 63 00 01 	addi r3,r3,1
 5b0:	58 23 00 00 	sw (r1+0),r3
	timer0->tcr0     = TIMER_EN | TIMER_AR | TIMER_IRQEN;
 5b4:	34 01 00 0e 	mvi r1,14
 5b8:	58 41 00 00 	sw (r2+0),r1
}
 5bc:	c3 a0 00 00 	ret

000005c0 <tic_init>:
	timer0->compare0 = conf_per();
	timer0->counter0 = 0;
	timer0->tcr0     = TIMER_EN | TIMER_AR | TIMER_IRQEN;

	// Setup timer0.1
	timer0->compare1 = conf_util(pwm_d[0]);
 5c0:	78 02 00 00 	mvhi r2,0x0
 5c4:	38 42 0f 1c 	ori r2,r2,0xf1c
uint32_t conf_per() {
			return (FCPU/1000)*pwm_p;
		}

uint32_t conf_util(uint32_t percentage){
			return (FCPU/44100/100)*pwm_p*percentage;  
 5c8:	28 45 00 00 	lw r5,(r2+0)
	
}


uint32_t conf_per() {
			return (FCPU/1000)*pwm_p;
 5cc:	78 01 00 00 	mvhi r1,0x0
	timer0->tcr0     = TIMER_EN | TIMER_AR | TIMER_IRQEN;
}

void tic_init()
{
	gpio0->out=0x0F;
 5d0:	78 02 00 00 	mvhi r2,0x0
	
}


uint32_t conf_per() {
			return (FCPU/1000)*pwm_p;
 5d4:	78 06 00 00 	mvhi r6,0x0
 5d8:	38 21 11 28 	ori r1,r1,0x1128
	timer0->tcr0     = TIMER_EN | TIMER_AR | TIMER_IRQEN;
}

void tic_init()
{
	gpio0->out=0x0F;
 5dc:	38 42 0f 14 	ori r2,r2,0xf14
	
}


uint32_t conf_per() {
			return (FCPU/1000)*pwm_p;
 5e0:	38 c6 07 38 	ori r6,r6,0x738
 5e4:	28 23 00 00 	lw r3,(r1+0)
	timer0->tcr0     = TIMER_EN | TIMER_AR | TIMER_IRQEN;
}

void tic_init()
{
	gpio0->out=0x0F;
 5e8:	28 44 00 00 	lw r4,(r2+0)
	
}


uint32_t conf_per() {
			return (FCPU/1000)*pwm_p;
 5ec:	28 c2 00 00 	lw r2,(r6+0)
void tic_init()
{
	gpio0->out=0x0F;

	// Setup timer0.0
	timer0->compare0 = conf_per();
 5f0:	78 01 00 00 	mvhi r1,0x0
 5f4:	38 21 0f 10 	ori r1,r1,0xf10
 5f8:	28 21 00 00 	lw r1,(r1+0)
	
}


uint32_t conf_per() {
			return (FCPU/1000)*pwm_p;
 5fc:	88 62 10 00 	mul r2,r3,r2
		}

uint32_t conf_util(uint32_t percentage){
			return (FCPU/44100/100)*pwm_p*percentage;  
 600:	88 65 18 00 	mul r3,r3,r5
	timer0->tcr0     = TIMER_EN | TIMER_AR | TIMER_IRQEN;
}

void tic_init()
{
	gpio0->out=0x0F;
 604:	34 05 00 0f 	mvi r5,15
 608:	58 85 00 14 	sw (r4+20),r5

	// Setup timer0.0
	timer0->compare0 = conf_per();
 60c:	58 22 00 04 	sw (r1+4),r2
uint32_t conf_per() {
			return (FCPU/1000)*pwm_p;
		}

uint32_t conf_util(uint32_t percentage){
			return (FCPU/44100/100)*pwm_p*percentage;  
 610:	08 63 00 16 	muli r3,r3,22
{
	gpio0->out=0x0F;

	// Setup timer0.0
	timer0->compare0 = conf_per();
	timer0->counter0 = 0;
 614:	58 20 00 08 	sw (r1+8),r0
	timer0->tcr0     = TIMER_EN | TIMER_AR | TIMER_IRQEN;
 618:	34 05 00 0e 	mvi r5,14
 61c:	58 25 00 00 	sw (r1+0),r5

	// Setup timer0.1
	timer0->compare1 = conf_util(pwm_d[0]);
 620:	58 23 00 10 	sw (r1+16),r3
	timer0->counter1 = 0;
 624:	58 20 00 14 	sw (r1+20),r0
		isr_table[i] = &isr_null;
}

void isr_register(int irq, isr_ptr_t isr)
{
	isr_table[irq] = isr;
 628:	78 02 00 00 	mvhi r2,0x0
 62c:	78 04 00 00 	mvhi r4,0x0
 630:	78 03 00 00 	mvhi r3,0x0
	timer0->tcr0     = TIMER_EN | TIMER_AR | TIMER_IRQEN;

	// Setup timer0.1
	timer0->compare1 = conf_util(pwm_d[0]);
	timer0->counter1 = 0;
	timer0->tcr1     = TIMER_EN | TIMER_AR | TIMER_IRQEN;
 634:	58 25 00 0c 	sw (r1+12),r5
		isr_table[i] = &isr_null;
}

void isr_register(int irq, isr_ptr_t isr)
{
	isr_table[irq] = isr;
 638:	38 42 11 30 	ori r2,r2,0x1130
 63c:	38 84 03 68 	ori r4,r4,0x368
 640:	38 63 03 c8 	ori r3,r3,0x3c8
 644:	58 44 00 0c 	sw (r2+12),r4
 648:	58 43 00 3c 	sw (r2+60),r3

	isr_register(3, &tic_isr_0);
	//boton	
	isr_register(15, &tic_isr_1);
	
}
 64c:	c3 a0 00 00 	ret

00000650 <conf_per>:


uint32_t conf_per() {
			return (FCPU/1000)*pwm_p;
 650:	78 01 00 00 	mvhi r1,0x0
 654:	78 03 00 00 	mvhi r3,0x0
 658:	38 21 11 28 	ori r1,r1,0x1128
 65c:	38 63 07 38 	ori r3,r3,0x738
 660:	28 22 00 00 	lw r2,(r1+0)
 664:	28 61 00 00 	lw r1,(r3+0)
		}
 668:	88 41 08 00 	mul r1,r2,r1
 66c:	c3 a0 00 00 	ret

00000670 <conf_util>:

uint32_t conf_util(uint32_t percentage){
			return (FCPU/44100/100)*pwm_p*percentage;  
 670:	78 02 00 00 	mvhi r2,0x0
 674:	38 42 11 28 	ori r2,r2,0x1128
 678:	28 42 00 00 	lw r2,(r2+0)
 67c:	08 42 00 16 	muli r2,r2,22
		}
 680:	88 41 08 00 	mul r1,r2,r1
 684:	c3 a0 00 00 	ret

00000688 <uart_init>:
	//uart0->lcr = 0x03;  // Line Control Register:    8N1
	//uart0->mcr = 0x00;  // Modem Control Register

	// Setup Divisor register (Fclk / Baud)
	//uart0->div = (FCPU/(57600*16));
}
 688:	c3 a0 00 00 	ret

0000068c <uart_getchar>:

char uart_getchar()
{   
 68c:	78 01 00 00 	mvhi r1,0x0
 690:	38 21 0f 0c 	ori r1,r1,0xf0c
 694:	28 22 00 00 	lw r2,(r1+0)
	while (! (uart0->ucr & UART_DR)) ;
 698:	28 41 00 00 	lw r1,(r2+0)
 69c:	20 21 00 01 	andi r1,r1,0x1
 6a0:	44 20 ff fe 	be r1,r0,698 <uart_getchar+0xc>
	return uart0->rxtx;
 6a4:	28 41 00 04 	lw r1,(r2+4)
}
 6a8:	20 21 00 ff 	andi r1,r1,0xff
 6ac:	c3 a0 00 00 	ret

000006b0 <uart_putchar>:

void uart_putchar(char c)
{
 6b0:	78 02 00 00 	mvhi r2,0x0
 6b4:	38 42 0f 0c 	ori r2,r2,0xf0c
 6b8:	28 43 00 00 	lw r3,(r2+0)
 6bc:	20 21 00 ff 	andi r1,r1,0xff
	while (uart0->ucr & UART_BUSY) ;
 6c0:	28 62 00 00 	lw r2,(r3+0)
 6c4:	20 42 00 10 	andi r2,r2,0x10
 6c8:	5c 40 ff fe 	bne r2,r0,6c0 <uart_putchar+0x10>
	uart0->rxtx = c;
 6cc:	58 61 00 04 	sw (r3+4),r1
}
 6d0:	c3 a0 00 00 	ret

000006d4 <uart_putstr>:

void uart_putstr(char *str)
{
	char *c = str;
	while(*c) {
 6d4:	40 24 00 00 	lbu r4,(r1+0)
 6d8:	44 80 00 0b 	be r4,r0,704 <uart_putstr+0x30>
 6dc:	78 02 00 00 	mvhi r2,0x0
 6e0:	38 42 0f 0c 	ori r2,r2,0xf0c
 6e4:	28 43 00 00 	lw r3,(r2+0)
	return uart0->rxtx;
}

void uart_putchar(char c)
{
	while (uart0->ucr & UART_BUSY) ;
 6e8:	28 62 00 00 	lw r2,(r3+0)
 6ec:	20 42 00 10 	andi r2,r2,0x10
 6f0:	5c 40 ff fe 	bne r2,r0,6e8 <uart_putstr+0x14>
	uart0->rxtx = c;
 6f4:	58 64 00 04 	sw (r3+4),r4
void uart_putstr(char *str)
{
	char *c = str;
	while(*c) {
		uart_putchar(*c);
		c++;
 6f8:	34 21 00 01 	addi r1,r1,1
}

void uart_putstr(char *str)
{
	char *c = str;
	while(*c) {
 6fc:	40 24 00 00 	lbu r4,(r1+0)
 700:	5c 82 ff fa 	bne r4,r2,6e8 <uart_putstr+0x14>
 704:	c3 a0 00 00 	ret

00000708 <gpio_test>:
/*************************************************************************
GPIO 
*/
void gpio_test()
{
 gpio0->out=0xA;
 708:	78 01 00 00 	mvhi r1,0x0
 70c:	38 21 0f 14 	ori r1,r1,0xf14
 710:	28 21 00 00 	lw r1,(r1+0)
 714:	34 02 00 0a 	mvi r2,10
 718:	58 22 00 14 	sw (r1+20),r2
}
 71c:	c3 a0 00 00 	ret

00000720 <gpio_output>:

void gpio_output(char ampPWM)
{
 gpio0->out=ampPWM;
 720:	78 02 00 00 	mvhi r2,0x0
 724:	38 42 0f 14 	ori r2,r2,0xf14
 728:	28 42 00 00 	lw r2,(r2+0)
{
 gpio0->out=0xA;
}

void gpio_output(char ampPWM)
{
 72c:	20 21 00 ff 	andi r1,r1,0xff
 gpio0->out=ampPWM;
 730:	58 41 00 14 	sw (r2+20),r1
}
 734:	c3 a0 00 00 	ret
